target datalayout = "e-m:e-p270:32:32-p271:32:32-p272:64:64-i64:64-i128:128-f80:128-n8:16:32:64-S128"
target triple = "x86_64-pc-linux-gnu"

%struct.Tree_Sto_t_ = type { i32, i32, [16 x i32], [16 x i32], [16 x i32], [16 x i32], [16 x %struct.Vec_Int_t_], ptr }
%struct.Vec_Int_t_ = type { i32, i32, ptr }

@.str.4 = private unnamed_addr constant [19 x i8] c"Total nodes = %d.\0A\00", align 1

; Function Attrs: nounwind uwtable
define void @Gia_ManTreeFree(ptr noundef %0) #0 {
  %2 = alloca ptr, align 8
  %3 = alloca i32, align 4
  store ptr %0, ptr %2, align 8, !tbaa !3
  call void @llvm.lifetime.start.p0(i64 4, ptr %3) #13
  store i32 0, ptr %3, align 4, !tbaa !9
  br label %4

4:                                                ; preds = %32, %1
  %5 = load i32, ptr %3, align 4, !tbaa !9
  %6 = icmp slt i32 %5, 16
  br i1 %6, label %7, label %35

7:                                                ; preds = %4
  %8 = load ptr, ptr %2, align 8, !tbaa !3
  %9 = getelementptr inbounds nuw %struct.Tree_Sto_t_, ptr %8, i32 0, i32 6
  %10 = load i32, ptr %3, align 4, !tbaa !9
  %11 = sext i32 %10 to i64
  %12 = getelementptr inbounds [16 x %struct.Vec_Int_t_], ptr %9, i64 0, i64 %11
  %13 = getelementptr inbounds nuw %struct.Vec_Int_t_, ptr %12, i32 0, i32 2
  %14 = load ptr, ptr %13, align 8, !tbaa !26
  %15 = icmp ne ptr %14, null
  br i1 %15, label %16, label %30

16:                                               ; preds = %7
  %17 = load ptr, ptr %2, align 8, !tbaa !3
  %18 = getelementptr inbounds nuw %struct.Tree_Sto_t_, ptr %17, i32 0, i32 6
  %19 = load i32, ptr %3, align 4, !tbaa !9
  %20 = sext i32 %19 to i64
  %21 = getelementptr inbounds [16 x %struct.Vec_Int_t_], ptr %18, i64 0, i64 %20
  %22 = getelementptr inbounds nuw %struct.Vec_Int_t_, ptr %21, i32 0, i32 2
  %23 = load ptr, ptr %22, align 8, !tbaa !26
  call void @free(ptr noundef %23) #13
  %24 = load ptr, ptr %2, align 8, !tbaa !3
  %25 = getelementptr inbounds nuw %struct.Tree_Sto_t_, ptr %24, i32 0, i32 6
  %26 = load i32, ptr %3, align 4, !tbaa !9
  %27 = sext i32 %26 to i64
  %28 = getelementptr inbounds [16 x %struct.Vec_Int_t_], ptr %25, i64 0, i64 %27
  %29 = getelementptr inbounds nuw %struct.Vec_Int_t_, ptr %28, i32 0, i32 2
  store ptr null, ptr %29, align 8, !tbaa !26
  br label %31

30:                                               ; preds = %7
  br label %31

31:                                               ; preds = %30, %16
  br label %32

32:                                               ; preds = %31
  %33 = load i32, ptr %3, align 4, !tbaa !9
  %34 = add nsw i32 %33, 1
  store i32 %34, ptr %3, align 4, !tbaa !9
  br label %4, !llvm.loop !28

35:                                               ; preds = %4
  %36 = load ptr, ptr %2, align 8, !tbaa !3
  %37 = getelementptr inbounds nuw %struct.Tree_Sto_t_, ptr %36, i32 0, i32 7
  %38 = load ptr, ptr %37, align 8, !tbaa !14
  %39 = icmp ne ptr %38, null
  br i1 %39, label %40, label %46

40:                                               ; preds = %35
  %41 = load ptr, ptr %2, align 8, !tbaa !3
  %42 = getelementptr inbounds nuw %struct.Tree_Sto_t_, ptr %41, i32 0, i32 7
  %43 = load ptr, ptr %42, align 8, !tbaa !14
  call void @free(ptr noundef %43) #13
  %44 = load ptr, ptr %2, align 8, !tbaa !3
  %45 = getelementptr inbounds nuw %struct.Tree_Sto_t_, ptr %44, i32 0, i32 7
  store ptr null, ptr %45, align 8, !tbaa !14
  br label %47

46:                                               ; preds = %35
  br label %47

47:                                               ; preds = %46, %40
  %48 = load ptr, ptr %2, align 8, !tbaa !3
  %49 = icmp ne ptr %48, null
  br i1 %49, label %50, label %52

50:                                               ; preds = %47
  %51 = load ptr, ptr %2, align 8, !tbaa !3
  call void @free(ptr noundef %51) #13
  store ptr null, ptr %2, align 8, !tbaa !3
  br label %53

52:                                               ; preds = %47
  br label %53

53:                                               ; preds = %52, %50
  call void @llvm.lifetime.end.p0(i64 4, ptr %3) #13
  ret void
}

; Function Attrs: nounwind uwtable
define i32 @Gia_ManTreeCountNodes(ptr noundef %0) #0 {
  %2 = alloca ptr, align 8
  %3 = alloca i32, align 4
  %4 = alloca i32, align 4
  store ptr %0, ptr %2, align 8, !tbaa !3
  call void @llvm.lifetime.start.p0(i64 4, ptr %3) #13
  call void @llvm.lifetime.start.p0(i64 4, ptr %4) #13
  store i32 0, ptr %4, align 4, !tbaa !9
  store i32 0, ptr %3, align 4, !tbaa !9
  br label %5

5:                                                ; preds = %17, %1
  %6 = load i32, ptr %3, align 4, !tbaa !9
  %7 = icmp slt i32 %6, 16
  br i1 %7, label %8, label %20

8:                                                ; preds = %5
  %9 = load ptr, ptr %2, align 8, !tbaa !3
  %10 = getelementptr inbounds nuw %struct.Tree_Sto_t_, ptr %9, i32 0, i32 5
  %11 = load i32, ptr %3, align 4, !tbaa !9
  %12 = sext i32 %11 to i64
  %13 = getelementptr inbounds [16 x i32], ptr %10, i64 0, i64 %12
  %14 = load i32, ptr %13, align 4, !tbaa !9
  %15 = load i32, ptr %4, align 4, !tbaa !9
  %16 = add nsw i32 %15, %14
  store i32 %16, ptr %4, align 4, !tbaa !9
  br label %17

17:                                               ; preds = %8
  %18 = load i32, ptr %3, align 4, !tbaa !9
  %19 = add nsw i32 %18, 1
  store i32 %19, ptr %3, align 4, !tbaa !9
  br label %5, !llvm.loop !29

20:                                               ; preds = %5
  %21 = load i32, ptr %4, align 4, !tbaa !9
  call void @llvm.lifetime.end.p0(i64 4, ptr %4) #13
  call void @llvm.lifetime.end.p0(i64 4, ptr %3) #13
  ret i32 %21
}

; Function Attrs: nounwind uwtable
define void @Gia_ManContructTreeTest(ptr noundef %0, i32 noundef %1, i32 noundef %2, i32 noundef %3) #0 {
  %5 = alloca ptr, align 8
  %6 = alloca i32, align 4
  %7 = alloca i32, align 4
  %8 = alloca i32, align 4
  %9 = alloca ptr, align 8
  store ptr %0, ptr %5, align 8, !tbaa !12
  store i32 %1, ptr %6, align 4, !tbaa !9
  store i32 %2, ptr %7, align 4, !tbaa !9
  store i32 %3, ptr %8, align 4, !tbaa !9
  call void @llvm.lifetime.start.p0(i64 8, ptr %9) #13
  %10 = load ptr, ptr %5, align 8, !tbaa !12
  %11 = load i32, ptr %6, align 4, !tbaa !9
  %12 = load i32, ptr %7, align 4, !tbaa !9
  %13 = load i32, ptr %8, align 4, !tbaa !9
  %14 = call ptr @Gia_ManContructTree(ptr noundef %10, i32 noundef %11, i32 noundef %12, i32 noundef %13)
  store ptr %14, ptr %9, align 8, !tbaa !3
  %15 = load ptr, ptr %9, align 8, !tbaa !3
  %16 = call i32 @Gia_ManTreeCountNodes(ptr noundef %15)
  %17 = call i32 (ptr, ...) @printf(ptr noundef @.str.4, i32 noundef %16)
  %18 = load ptr, ptr %9, align 8, !tbaa !3
  call void @Gia_ManTreeFree(ptr noundef %18)
  call void @llvm.lifetime.end.p0(i64 8, ptr %9) #13
  ret void
}