; Function Attrs: nounwind uwtable
define void @Gia_ManContructTreeTest(ptr noundef readonly captures(none) %0, i32 noundef %1, i32 noundef %2, i32 noundef %3) local_unnamed_addr #0 {
  %5 = tail call ptr @Gia_ManContructTree(ptr noundef %0, i32 noundef %1, i32 noundef %2, i32 noundef %3)
  %6 = getelementptr inbounds nuw i8, ptr %5, i64 200
  br label %7

7:                                                ; preds = %7, %4
  %indvars.iv.i = phi i64 [ 0, %4 ], [ %indvars.iv.next.i, %7 ]
  %.07.i = phi i32 [ 0, %4 ], [ %10, %7 ]
  %8 = getelementptr inbounds nuw [16 x i32], ptr %6, i64 0, i64 %indvars.iv.i
  %9 = load i32, ptr %8, align 4, !tbaa !4
  %10 = add nsw i32 %9, %.07.i
  %indvars.iv.next.i = add nuw nsw i64 %indvars.iv.i, 1
  %exitcond.not.i = icmp eq i64 %indvars.iv.next.i, 16
  br i1 %exitcond.not.i, label %Gia_ManTreeCountNodes.exit, label %7, !llvm.loop !27

Gia_ManTreeCountNodes.exit:                       ; preds = %7
  %11 = tail call i32 (ptr, ...) @printf(ptr noundef nonnull dereferenceable(1) @.str.4, i32 noundef %10)
  %12 = getelementptr i8, ptr %5, i64 272
  br label %13

13:                                               ; preds = %18, %Gia_ManTreeCountNodes.exit
  %indvars.iv.i5 = phi i64 [ 0, %Gia_ManTreeCountNodes.exit ], [ %indvars.iv.next.i6, %18 ]
  %14 = shl nuw nsw i64 %indvars.iv.i5, 4
  %15 = getelementptr i8, ptr %12, i64 %14
  %16 = load ptr, ptr %15, align 8, !tbaa !21
  %.not16.i = icmp eq ptr %16, null
  br i1 %.not16.i, label %18, label %17

17:                                               ; preds = %13
  tail call void @free(ptr noundef nonnull %16) #24
  store ptr null, ptr %15, align 8, !tbaa !21
  br label %18

18:                                               ; preds = %17, %13
  %indvars.iv.next.i6 = add nuw nsw i64 %indvars.iv.i5, 1
  %exitcond.not.i7 = icmp eq i64 %indvars.iv.next.i6, 16
  br i1 %exitcond.not.i7, label %19, label %13, !llvm.loop !26

19:                                               ; preds = %18
  %20 = getelementptr inbounds nuw i8, ptr %5, i64 520
  %21 = load ptr, ptr %20, align 8, !tbaa !12
  %.not.i = icmp eq ptr %21, null
  br i1 %.not.i, label %Gia_ManTreeFree.exit, label %22

22:                                               ; preds = %19
  tail call void @free(ptr noundef nonnull %21) #24
  br label %Gia_ManTreeFree.exit

Gia_ManTreeFree.exit:                             ; preds = %19, %22
  tail call void @free(ptr noundef nonnull %5) #24
  ret void
}